; Function Attrs: mustprogress nofree norecurse nosync nounwind willreturn memory(argmem: write) uwtable
define void @rocksdb_options_set_bottommost_compression_options_max_dict_buffer_bytes(ptr noundef writeonly captures(none) initializes((1328, 1329), (1336, 1344)) %0, i64 noundef %1, i8 noundef zeroext %2) local_unnamed_addr #7 {
  %4 = getelementptr inbounds nuw i8, ptr %0, i64 1336
  store i64 %1, ptr %4, align 8, !tbaa !703
  %5 = icmp ne i8 %2, 0
  %6 = getelementptr inbounds nuw i8, ptr %0, i64 1328
  %7 = zext i1 %5 to i8
  store i8 %7, ptr %6, align 8, !tbaa !700
  ret void
}